target datalayout = "e-m:e-p270:32:32-p271:32:32-p272:64:64-i64:64-i128:128-f80:128-n8:16:32:64-S128"
target triple = "x86_64-pc-linux-gnu"

%struct.Tuplesortstate = type { %struct.TuplesortPublic, i32, i8, i8, i32, i64, i64, i64, i32, i64, i8, i32, ptr, ptr, i32, i32, i8, i8, ptr, ptr, ptr, i64, ptr, i32, ptr, i32, i32, ptr, i32, i32, ptr, ptr, i32, i8, i64, i32, i8, i32, ptr, i32, i64, %struct.PGRUsage }
%struct.TuplesortPublic = type { ptr, ptr, ptr, ptr, ptr, ptr, ptr, ptr, ptr, i8, i32, ptr, ptr, i32, i8, ptr }
%struct.PGRUsage = type { %struct.timeval, %struct.rusage }
%struct.timeval = type { i64, i64 }
%struct.rusage = type { %struct.timeval, %struct.timeval, %union.anon, %union.anon.0, %union.anon.1, %union.anon.2, %union.anon.3, %union.anon.4, %union.anon.5, %union.anon.6, %union.anon.7, %union.anon.8, %union.anon.9, %union.anon.10, %union.anon.11, %union.anon.12 }
%union.anon = type { i64 }
%union.anon.0 = type { i64 }
%union.anon.1 = type { i64 }
%union.anon.2 = type { i64 }
%union.anon.3 = type { i64 }
%union.anon.4 = type { i64 }
%union.anon.5 = type { i64 }
%union.anon.6 = type { i64 }
%union.anon.7 = type { i64 }
%union.anon.8 = type { i64 }
%union.anon.9 = type { i64 }
%union.anon.10 = type { i64 }
%union.anon.11 = type { i64 }
%union.anon.12 = type { i64 }
%struct.SortSupportData = type { ptr, i32, i8, i8, i16, ptr, ptr, i8, ptr, ptr, ptr }

; Function Attrs: nounwind uwtable
define dso_local void @tuplesort_set_bound(ptr noundef %0, i64 noundef %1) #0 {
  %3 = alloca ptr, align 8
  %4 = alloca i64, align 8
  store ptr %0, ptr %3, align 8
  store i64 %1, ptr %4, align 8
  %5 = load ptr, ptr %3, align 8
  %6 = getelementptr inbounds nuw %struct.Tuplesortstate, ptr %5, i32 0, i32 38
  %7 = load ptr, ptr %6, align 8
  %8 = icmp ne ptr %7, null
  br i1 %8, label %9, label %15

9:                                                ; preds = %2
  %10 = load ptr, ptr %3, align 8
  %11 = getelementptr inbounds nuw %struct.Tuplesortstate, ptr %10, i32 0, i32 37
  %12 = load i32, ptr %11, align 8
  %13 = icmp eq i32 %12, -1
  br i1 %13, label %14, label %15

14:                                               ; preds = %9
  br label %61

15:                                               ; preds = %9, %2
  %16 = load i64, ptr %4, align 8
  %17 = icmp sgt i64 %16, 1073741823
  br i1 %17, label %18, label %19

18:                                               ; preds = %15
  br label %61

19:                                               ; preds = %15
  %20 = load ptr, ptr %3, align 8
  %21 = getelementptr inbounds nuw %struct.Tuplesortstate, ptr %20, i32 0, i32 2
  store i8 1, ptr %21, align 4
  %22 = load i64, ptr %4, align 8
  %23 = trunc i64 %22 to i32
  %24 = load ptr, ptr %3, align 8
  %25 = getelementptr inbounds nuw %struct.Tuplesortstate, ptr %24, i32 0, i32 4
  store i32 %23, ptr %25, align 8
  %26 = load ptr, ptr %3, align 8
  %27 = getelementptr inbounds nuw %struct.Tuplesortstate, ptr %26, i32 0, i32 0
  %28 = getelementptr inbounds nuw %struct.TuplesortPublic, ptr %27, i32 0, i32 11
  %29 = load ptr, ptr %28, align 8
  %30 = getelementptr inbounds nuw %struct.SortSupportData, ptr %29, i32 0, i32 8
  store ptr null, ptr %30, align 8
  %31 = load ptr, ptr %3, align 8
  %32 = getelementptr inbounds nuw %struct.Tuplesortstate, ptr %31, i32 0, i32 0
  %33 = getelementptr inbounds nuw %struct.TuplesortPublic, ptr %32, i32 0, i32 11
  %34 = load ptr, ptr %33, align 8
  %35 = getelementptr inbounds nuw %struct.SortSupportData, ptr %34, i32 0, i32 10
  %36 = load ptr, ptr %35, align 8
  %37 = icmp ne ptr %36, null
  br i1 %37, label %38, label %50

38:                                               ; preds = %19
  %39 = load ptr, ptr %3, align 8
  %40 = getelementptr inbounds nuw %struct.Tuplesortstate, ptr %39, i32 0, i32 0
  %41 = getelementptr inbounds nuw %struct.TuplesortPublic, ptr %40, i32 0, i32 11
  %42 = load ptr, ptr %41, align 8
  %43 = getelementptr inbounds nuw %struct.SortSupportData, ptr %42, i32 0, i32 10
  %44 = load ptr, ptr %43, align 8
  %45 = load ptr, ptr %3, align 8
  %46 = getelementptr inbounds nuw %struct.Tuplesortstate, ptr %45, i32 0, i32 0
  %47 = getelementptr inbounds nuw %struct.TuplesortPublic, ptr %46, i32 0, i32 11
  %48 = load ptr, ptr %47, align 8
  %49 = getelementptr inbounds nuw %struct.SortSupportData, ptr %48, i32 0, i32 6
  store ptr %44, ptr %49, align 8
  br label %50

50:                                               ; preds = %38, %19
  %51 = load ptr, ptr %3, align 8
  %52 = getelementptr inbounds nuw %struct.Tuplesortstate, ptr %51, i32 0, i32 0
  %53 = getelementptr inbounds nuw %struct.TuplesortPublic, ptr %52, i32 0, i32 11
  %54 = load ptr, ptr %53, align 8
  %55 = getelementptr inbounds nuw %struct.SortSupportData, ptr %54, i32 0, i32 9
  store ptr null, ptr %55, align 8
  %56 = load ptr, ptr %3, align 8
  %57 = getelementptr inbounds nuw %struct.Tuplesortstate, ptr %56, i32 0, i32 0
  %58 = getelementptr inbounds nuw %struct.TuplesortPublic, ptr %57, i32 0, i32 11
  %59 = load ptr, ptr %58, align 8
  %60 = getelementptr inbounds nuw %struct.SortSupportData, ptr %59, i32 0, i32 10
  store ptr null, ptr %60, align 8
  br label %61

61:                                               ; preds = %50, %18, %14
  ret void
}