; Function Attrs: mustprogress nofree norecurse nosync nounwind willreturn memory(readwrite, inaccessiblemem: none) uwtable
define dso_local void @tuplesort_set_bound(ptr noundef captures(none) %0, i64 noundef %1) local_unnamed_addr #4 {
  %3 = getelementptr inbounds nuw i8, ptr %0, i64 336
  %4 = load ptr, ptr %3, align 8
  %.not = icmp eq ptr %4, null
  br i1 %.not, label %10, label %5

5:                                                ; preds = %2
  %6 = getelementptr inbounds nuw i8, ptr %0, i64 328
  %7 = load i32, ptr %6, align 8
  %8 = icmp eq i32 %7, -1
  %9 = icmp sgt i64 %1, 1073741823
  %or.cond = or i1 %9, %8
  br i1 %or.cond, label %28, label %11

10:                                               ; preds = %2
  %.old1 = icmp sgt i64 %1, 1073741823
  br i1 %.old1, label %28, label %11

11:                                               ; preds = %5, %10
  %12 = getelementptr inbounds nuw i8, ptr %0, i64 116
  store i8 1, ptr %12, align 4
  %13 = trunc i64 %1 to i32
  %14 = getelementptr inbounds nuw i8, ptr %0, i64 120
  store i32 %13, ptr %14, align 8
  %15 = getelementptr inbounds nuw i8, ptr %0, i64 80
  %16 = load ptr, ptr %15, align 8
  %17 = getelementptr inbounds nuw i8, ptr %16, i64 40
  store ptr null, ptr %17, align 8
  %18 = load ptr, ptr %15, align 8
  %19 = getelementptr inbounds nuw i8, ptr %18, i64 56
  %20 = load ptr, ptr %19, align 8
  %.not13 = icmp eq ptr %20, null
  br i1 %.not13, label %23, label %21

21:                                               ; preds = %11
  %22 = getelementptr inbounds nuw i8, ptr %18, i64 24
  store ptr %20, ptr %22, align 8
  %.pre = load ptr, ptr %15, align 8
  br label %23

23:                                               ; preds = %21, %11
  %24 = phi ptr [ %.pre, %21 ], [ %18, %11 ]
  %25 = getelementptr inbounds nuw i8, ptr %24, i64 48
  store ptr null, ptr %25, align 8
  %26 = load ptr, ptr %15, align 8
  %27 = getelementptr inbounds nuw i8, ptr %26, i64 56
  store ptr null, ptr %27, align 8
  br label %28

28:                                               ; preds = %10, %5, %23
  ret void
}